; ModuleID = '13/743.c'
source_filename = "13/743.c"
target datalayout = "e-m:e-p270:32:32-p271:32:32-p272:64:64-i64:64-f80:128-n8:16:32:64-S128"
target triple = "x86_64-pc-linux-gnu"

@.str = private unnamed_addr constant [3 x i8] c"%d\00", align 1
@.str.1 = private unnamed_addr constant [4 x i8] c" %d\00", align 1

; Function Attrs: noinline nounwind uwtable
define dso_local i32 @main() #0 {
  %1 = alloca i32, align 4
  %2 = alloca i32, align 4
  %3 = alloca i32, align 4
  %4 = alloca i32, align 4
  %5 = alloca i32, align 4
  %6 = alloca [100000 x i32], align 16
  store i32 0, i32* %1, align 4
  %7 = call i32 (i8*, ...) @__isoc99_scanf(i8* getelementptr inbounds ([3 x i8], [3 x i8]* @.str, i64 0, i64 0), i32* %2)
  store i32 0, i32* %3, align 4
  br label %8

8:                                                ; preds = %17, %0
  %9 = load i32, i32* %3, align 4
  %10 = load i32, i32* %2, align 4
  %11 = icmp slt i32 %9, %10
  br i1 %11, label %12, label %20

12:                                               ; preds = %8
  %13 = load i32, i32* %3, align 4
  %14 = sext i32 %13 to i64
  %15 = getelementptr inbounds [100000 x i32], [100000 x i32]* %6, i64 0, i64 %14
  %16 = call i32 (i8*, ...) @__isoc99_scanf(i8* getelementptr inbounds ([3 x i8], [3 x i8]* @.str, i64 0, i64 0), i32* %15)
  br label %17

17:                                               ; preds = %12
  %18 = load i32, i32* %3, align 4
  %19 = add nsw i32 %18, 1
  store i32 %19, i32* %3, align 4
  br label %8

20:                                               ; preds = %8
  store i32 0, i32* %3, align 4
  br label %21

21:                                               ; preds = %51, %20
  %22 = load i32, i32* %3, align 4
  %23 = load i32, i32* %2, align 4
  %24 = icmp slt i32 %22, %23
  br i1 %24, label %25, label %54

25:                                               ; preds = %21
  %26 = load i32, i32* %3, align 4
  %27 = add nsw i32 %26, 1
  store i32 %27, i32* %4, align 4
  br label %28

28:                                               ; preds = %47, %25
  %29 = load i32, i32* %4, align 4
  %30 = load i32, i32* %2, align 4
  %31 = icmp slt i32 %29, %30
  br i1 %31, label %32, label %50

32:                                               ; preds = %28
  %33 = load i32, i32* %4, align 4
  %34 = sext i32 %33 to i64
  %35 = getelementptr inbounds [100000 x i32], [100000 x i32]* %6, i64 0, i64 %34
  %36 = load i32, i32* %35, align 4
  %37 = load i32, i32* %3, align 4
  %38 = sext i32 %37 to i64
  %39 = getelementptr inbounds [100000 x i32], [100000 x i32]* %6, i64 0, i64 %38
  %40 = load i32, i32* %39, align 4
  %41 = icmp eq i32 %36, %40
  br i1 %41, label %42, label %46

42:                                               ; preds = %32
  %43 = load i32, i32* %4, align 4
  %44 = sext i32 %43 to i64
  %45 = getelementptr inbounds [100000 x i32], [100000 x i32]* %6, i64 0, i64 %44
  store i32 0, i32* %45, align 4
  br label %46

46:                                               ; preds = %42, %32
  br label %47

47:                                               ; preds = %46
  %48 = load i32, i32* %4, align 4
  %49 = add nsw i32 %48, 1
  store i32 %49, i32* %4, align 4
  br label %28

50:                                               ; preds = %28
  br label %51

51:                                               ; preds = %50
  %52 = load i32, i32* %3, align 4
  %53 = add nsw i32 %52, 1
  store i32 %53, i32* %3, align 4
  br label %21

54:                                               ; preds = %21
  store i32 0, i32* %5, align 4
  store i32 0, i32* %3, align 4
  br label %55

55:                                               ; preds = %82, %54
  %56 = load i32, i32* %3, align 4
  %57 = load i32, i32* %2, align 4
  %58 = icmp slt i32 %56, %57
  br i1 %58, label %59, label %85

59:                                               ; preds = %55
  %60 = load i32, i32* %3, align 4
  %61 = sext i32 %60 to i64
  %62 = getelementptr inbounds [100000 x i32], [100000 x i32]* %6, i64 0, i64 %61
  %63 = load i32, i32* %62, align 4
  %64 = icmp ne i32 %63, 0
  br i1 %64, label %65, label %81

65:                                               ; preds = %59
  %66 = load i32, i32* %5, align 4
  %67 = icmp eq i32 %66, 0
  br i1 %67, label %68, label %74

68:                                               ; preds = %65
  %69 = load i32, i32* %3, align 4
  %70 = sext i32 %69 to i64
  %71 = getelementptr inbounds [100000 x i32], [100000 x i32]* %6, i64 0, i64 %70
  %72 = load i32, i32* %71, align 4
  %73 = call i32 (i8*, ...) @printf(i8* getelementptr inbounds ([3 x i8], [3 x i8]* @.str, i64 0, i64 0), i32 %72)
  store i32 1, i32* %5, align 4
  br label %80

74:                                               ; preds = %65
  %75 = load i32, i32* %3, align 4
  %76 = sext i32 %75 to i64
  %77 = getelementptr inbounds [100000 x i32], [100000 x i32]* %6, i64 0, i64 %76
  %78 = load i32, i32* %77, align 4
  %79 = call i32 (i8*, ...) @printf(i8* getelementptr inbounds ([4 x i8], [4 x i8]* @.str.1, i64 0, i64 0), i32 %78)
  br label %80

80:                                               ; preds = %74, %68
  br label %81

81:                                               ; preds = %80, %59
  br label %82

82:                                               ; preds = %81
  %83 = load i32, i32* %3, align 4
  %84 = add nsw i32 %83, 1
  store i32 %84, i32* %3, align 4
  br label %55

85:                                               ; preds = %55
  %86 = call i32 @getchar()
  %87 = call i32 @getchar()
  %88 = load i32, i32* %1, align 4
  ret i32 %88
}

declare dso_local i32 @__isoc99_scanf(i8*, ...) #1

declare dso_local i32 @printf(i8*, ...) #1

declare dso_local i32 @getchar() #1


!llvm.module.flags = !{!0}
!llvm.ident = !{!1}

!0 = !{i32 1, !"wchar_size", i32 4}
!1 = !{!"clang version 10.0.0-4ubuntu1 "}
